; Function Attrs: nounwind uwtable
define ptr @Acb_FindSupportMinOne(ptr noundef %0, i32 noundef %1, ptr noundef readonly captures(none) %2, ptr noundef captures(none) %3, ptr noundef readonly %4, i32 noundef %5) local_unnamed_addr #0 {
  %7 = getelementptr i8, ptr %2, i64 4
  %.val37 = load i32, ptr %7, align 4
  %8 = sdiv i32 %.val37, 256
  %9 = getelementptr i8, ptr %4, i64 4
  %.val30 = load i32, ptr %9, align 4
  %10 = tail call noalias dereferenceable_or_null(16) ptr @malloc(i64 noundef 16) #29
  %11 = add i32 %.val30, -1
  %or.cond.i = icmp ult i32 %11, 15
  %spec.store.select.i = select i1 %or.cond.i, i32 16, i32 %.val30
  %12 = getelementptr inbounds nuw i8, ptr %10, i64 4
  store i32 0, ptr %12, align 4
  store i32 %spec.store.select.i, ptr %10, align 8
  %.not.i = icmp eq i32 %spec.store.select.i, 0
  br i1 %.not.i, label %Vec_IntAlloc.exit, label %13

13:                                               ; preds = %6
  %14 = sext i32 %spec.store.select.i to i64
  %15 = shl nsw i64 %14, 2
  %16 = tail call noalias ptr @malloc(i64 noundef %15) #29
  br label %Vec_IntAlloc.exit

Vec_IntAlloc.exit:                                ; preds = %6, %13
  %17 = phi ptr [ %16, %13 ], [ null, %6 ]
  %18 = getelementptr inbounds nuw i8, ptr %10, i64 8
  store ptr %17, ptr %18, align 8
  %19 = icmp sgt i32 %.val30, 0
  br i1 %19, label %.lr.ph, label %.critedge

.lr.ph:                                           ; preds = %Vec_IntAlloc.exit
  %20 = getelementptr i8, ptr %4, i64 8
  %21 = zext i32 %5 to i64
  br label %22

22:                                               ; preds = %.lr.ph, %53
  %.val48 = phi i32 [ %.val30, %.lr.ph ], [ %.val, %53 ]
  %indvars.iv = phi i64 [ 0, %.lr.ph ], [ %indvars.iv.next, %53 ]
  %.val31 = load ptr, ptr %20, align 8
  %23 = getelementptr inbounds nuw i32, ptr %.val31, i64 %indvars.iv
  %24 = load i32, ptr %23, align 4
  %.not = icmp eq i64 %indvars.iv, %21
  br i1 %.not, label %53, label %25

25:                                               ; preds = %22
  %26 = load i32, ptr %12, align 4
  %27 = load i32, ptr %10, align 8
  %28 = icmp eq i32 %26, %27
  br i1 %28, label %29, label %.Vec_IntGrow.exit10_crit_edge.i

.Vec_IntGrow.exit10_crit_edge.i:                  ; preds = %25
  %.pre.i = load ptr, ptr %18, align 8
  br label %Vec_IntPush.exit

29:                                               ; preds = %25
  %30 = icmp slt i32 %26, 16
  br i1 %30, label %31, label %38

31:                                               ; preds = %29
  %32 = load ptr, ptr %18, align 8
  %.not9.i.i = icmp eq ptr %32, null
  br i1 %.not9.i.i, label %35, label %33

33:                                               ; preds = %31
  %34 = tail call dereferenceable_or_null(64) ptr @realloc(ptr noundef nonnull %32, i64 noundef 64) #30
  br label %Vec_IntGrow.exit.i

35:                                               ; preds = %31
  %36 = tail call noalias dereferenceable_or_null(64) ptr @malloc(i64 noundef 64) #29
  br label %Vec_IntGrow.exit.i

Vec_IntGrow.exit.i:                               ; preds = %35, %33
  %37 = phi ptr [ %34, %33 ], [ %36, %35 ]
  store ptr %37, ptr %18, align 8
  store i32 16, ptr %10, align 8
  br label %Vec_IntPush.exit

38:                                               ; preds = %29
  %39 = shl nuw nsw i32 %26, 1
  %40 = load ptr, ptr %18, align 8
  %.not9.i9.i = icmp eq ptr %40, null
  %41 = zext nneg i32 %39 to i64
  %42 = shl nuw nsw i64 %41, 2
  br i1 %.not9.i9.i, label %45, label %43

43:                                               ; preds = %38
  %44 = tail call ptr @realloc(ptr noundef nonnull %40, i64 noundef %42) #30
  br label %47

45:                                               ; preds = %38
  %46 = tail call noalias ptr @malloc(i64 noundef %42) #29
  br label %47

47:                                               ; preds = %45, %43
  %48 = phi ptr [ %44, %43 ], [ %46, %45 ]
  store ptr %48, ptr %18, align 8
  store i32 %39, ptr %10, align 8
  br label %Vec_IntPush.exit

Vec_IntPush.exit:                                 ; preds = %.Vec_IntGrow.exit10_crit_edge.i, %Vec_IntGrow.exit.i, %47
  %49 = phi ptr [ %.pre.i, %.Vec_IntGrow.exit10_crit_edge.i ], [ %48, %47 ], [ %37, %Vec_IntGrow.exit.i ]
  %50 = add nsw i32 %26, 1
  store i32 %50, ptr %12, align 4
  %51 = sext i32 %26 to i64
  %52 = getelementptr inbounds i32, ptr %49, i64 %51
  store i32 %24, ptr %52, align 4
  %.val.pre = load i32, ptr %9, align 4
  br label %53

53:                                               ; preds = %22, %Vec_IntPush.exit
  %.val = phi i32 [ %.val48, %22 ], [ %.val.pre, %Vec_IntPush.exit ]
  %indvars.iv.next = add nuw nsw i64 %indvars.iv, 1
  %54 = sext i32 %.val to i64
  %55 = icmp slt i64 %indvars.iv.next, %54
  br i1 %55, label %22, label %.critedge.loopexit, !llvm.loop !102

.critedge.loopexit:                               ; preds = %53
  %.val32.pre = load ptr, ptr %18, align 8
  %.val34.pre = load i32, ptr %12, align 4
  %56 = sext i32 %.val34.pre to i64
  br label %.critedge

.critedge:                                        ; preds = %.critedge.loopexit, %Vec_IntAlloc.exit
  %.val34 = phi i64 [ %56, %.critedge.loopexit ], [ 0, %Vec_IntAlloc.exit ]
  %.val32 = phi ptr [ %.val32.pre, %.critedge.loopexit ], [ %17, %Vec_IntAlloc.exit ]
  %57 = getelementptr inbounds i32, ptr %.val32, i64 %.val34
  %58 = tail call i32 @sat_solver_solve(ptr noundef %0, ptr noundef %.val32, ptr noundef %57, i64 noundef 0, i64 noundef 0, i64 noundef 0, i64 noundef 0) #31
  %59 = icmp eq i32 %58, -1
  br i1 %59, label %85, label %60

60:                                               ; preds = %.critedge
  %.not.i38 = icmp eq ptr %.val32, null
  br i1 %.not.i38, label %Vec_IntFree.exit, label %61

61:                                               ; preds = %60
  tail call void @free(ptr noundef nonnull %.val32) #31
  br label %Vec_IntFree.exit

Vec_IntFree.exit:                                 ; preds = %60, %61
  tail call void @free(ptr noundef nonnull %10) #31
  %62 = icmp sgt i32 %.val37, 255
  br i1 %62, label %.lr.ph43, label %._crit_edge

.lr.ph43:                                         ; preds = %Vec_IntFree.exit
  %63 = getelementptr i8, ptr %0, i64 328
  %64 = getelementptr i8, ptr %2, i64 8
  %65 = sext i32 %1 to i64
  %wide.trip.count = zext nneg i32 %8 to i64
  br label %66

66:                                               ; preds = %.lr.ph43, %81
  %indvars.iv45 = phi i64 [ 0, %.lr.ph43 ], [ %indvars.iv.next46, %81 ]
  %.val36 = load ptr, ptr %63, align 8
  %67 = getelementptr i32, ptr %.val36, i64 %indvars.iv45
  %68 = getelementptr i32, ptr %67, i64 %65
  %69 = load i32, ptr %68, align 4
  %.not39 = icmp eq i32 %69, 1
  br i1 %.not39, label %70, label %81

70:                                               ; preds = %66
  %.val33 = load ptr, ptr %64, align 8
  %.idx = shl nsw i64 %indvars.iv45, 11
  %71 = getelementptr inbounds nuw i8, ptr %.val33, i64 %.idx
  %72 = load i32, ptr %3, align 4
  %73 = and i32 %72, 63
  %74 = zext nneg i32 %73 to i64
  %75 = shl nuw i64 1, %74
  %76 = ashr i32 %72, 6
  %77 = sext i32 %76 to i64
  %78 = getelementptr inbounds i64, ptr %71, i64 %77
  %79 = load i64, ptr %78, align 8
  %80 = or i64 %75, %79
  store i64 %80, ptr %78, align 8
  br label %81

81:                                               ; preds = %66, %70
  %indvars.iv.next46 = add nuw nsw i64 %indvars.iv45, 1
  %exitcond.not = icmp eq i64 %indvars.iv.next46, %wide.trip.count
  br i1 %exitcond.not, label %._crit_edge, label %66, !llvm.loop !103

._crit_edge:                                      ; preds = %81, %Vec_IntFree.exit
  %82 = load i32, ptr %3, align 4
  %83 = add nsw i32 %82, 1
  store i32 %83, ptr %3, align 4
  %84 = icmp eq i32 %83, 16384
  %. = select i1 %84, ptr null, ptr %4
  br label %85

85:                                               ; preds = %._crit_edge, %.critedge
  %.0 = phi ptr [ %10, %.critedge ], [ %., %._crit_edge ]
  ret ptr %.0
}